target datalayout = "e-m:e-p270:32:32-p271:32:32-p272:64:64-i64:64-i128:128-f80:128-n8:16:32:64-S128"
target triple = "x86_64-pc-linux-gnu"

%"class.std::_Sp_counted_base" = type { ptr, i32, i32 }
%"class.std::enable_shared_from_this" = type { %"class.std::weak_ptr" }
%"class.std::weak_ptr" = type { %"class.std::__weak_ptr" }
%"class.std::__weak_ptr" = type { ptr, %"class.std::__weak_count" }
%"class.std::__weak_count" = type { ptr }

@__libc_single_threaded = external global i8, align 1

; Function Attrs: noreturn nounwind uwtable
define linkonce_odr hidden void @__clang_call_terminate(ptr noundef %0) #11 comdat {
  %2 = call ptr @__cxa_begin_catch(ptr %0) #7
  call void @_ZSt9terminatev() #14
  unreachable
}

; Function Attrs: mustprogress nounwind uwtable
define linkonce_odr void @_ZNSt16_Sp_counted_baseILN9__gnu_cxx12_Lock_policyE2EE15_M_weak_releaseEv(ptr noundef nonnull align 8 dereferenceable(16) %0) #2 comdat align 2 personality ptr @__gxx_personality_v0 {
  %2 = alloca ptr, align 8
  %3 = alloca i32, align 4
  %4 = alloca i32, align 4
  %5 = alloca i32, align 4
  %6 = alloca ptr, align 8
  %7 = alloca i32, align 4
  %8 = alloca i32, align 4
  %9 = alloca i32, align 4
  %10 = alloca ptr, align 8
  %11 = alloca i32, align 4
  %12 = alloca ptr, align 8
  store ptr %0, ptr %12, align 8
  %13 = load ptr, ptr %12, align 8
  %14 = getelementptr inbounds nuw %"class.std::_Sp_counted_base", ptr %13, i32 0, i32 2
  store ptr %14, ptr %10, align 8
  store i32 -1, ptr %11, align 4
  %15 = load i8, ptr @__libc_single_threaded, align 1
  %16 = icmp ne i8 %15, 0
  br i1 %16, label %17, label %27

17:                                               ; preds = %1
  %18 = load ptr, ptr %10, align 8
  %19 = load i32, ptr %11, align 4
  store ptr %18, ptr %6, align 8
  store i32 %19, ptr %7, align 4
  %20 = load ptr, ptr %6, align 8
  %21 = load i32, ptr %20, align 4
  store i32 %21, ptr %8, align 4
  %22 = load i32, ptr %7, align 4
  %23 = load ptr, ptr %6, align 8
  %24 = load i32, ptr %23, align 4
  %25 = add nsw i32 %24, %22
  store i32 %25, ptr %23, align 4
  %26 = load i32, ptr %8, align 4
  store i32 %26, ptr %9, align 4
  br label %35

27:                                               ; preds = %1
  %28 = load ptr, ptr %10, align 8
  %29 = load i32, ptr %11, align 4
  store ptr %28, ptr %2, align 8
  store i32 %29, ptr %3, align 4
  %30 = load ptr, ptr %2, align 8
  %31 = load i32, ptr %3, align 4
  store i32 %31, ptr %4, align 4
  %32 = load i32, ptr %4, align 4
  %33 = atomicrmw volatile add ptr %30, i32 %32 acq_rel, align 4
  store i32 %33, ptr %5, align 4
  %34 = load i32, ptr %5, align 4
  store i32 %34, ptr %9, align 4
  br label %35

35:                                               ; preds = %27, %17
  %36 = load i32, ptr %9, align 4
  br label %37

37:                                               ; preds = %35
  %38 = icmp eq i32 %36, 1
  br i1 %38, label %39, label %43

39:                                               ; preds = %37
  %40 = load ptr, ptr %13, align 8
  %41 = getelementptr inbounds ptr, ptr %40, i64 3
  %42 = load ptr, ptr %41, align 8
  call void %42(ptr noundef nonnull align 8 dereferenceable(16) %13) #7
  br label %43

43:                                               ; preds = %39, %37
  ret void

44:                                               ; No predecessors!
  %45 = landingpad { ptr, i32 }
          catch ptr null
  %46 = extractvalue { ptr, i32 } %45, 0
  call void @__clang_call_terminate(ptr %46) #14
  unreachable
}

; Function Attrs: mustprogress nounwind uwtable
define linkonce_odr void @_ZNSt12__weak_countILN9__gnu_cxx12_Lock_policyE2EED2Ev(ptr noundef nonnull align 8 dereferenceable(8) %0) unnamed_addr #2 comdat align 2 {
  %2 = alloca ptr, align 8
  store ptr %0, ptr %2, align 8
  %3 = load ptr, ptr %2, align 8
  %4 = getelementptr inbounds nuw %"class.std::__weak_count", ptr %3, i32 0, i32 0
  %5 = load ptr, ptr %4, align 8
  %6 = icmp ne ptr %5, null
  br i1 %6, label %7, label %10

7:                                                ; preds = %1
  %8 = getelementptr inbounds nuw %"class.std::__weak_count", ptr %3, i32 0, i32 0
  %9 = load ptr, ptr %8, align 8
  call void @_ZNSt16_Sp_counted_baseILN9__gnu_cxx12_Lock_policyE2EE15_M_weak_releaseEv(ptr noundef nonnull align 8 dereferenceable(16) %9) #7
  br label %10

10:                                               ; preds = %7, %1
  ret void
}

; Function Attrs: mustprogress nounwind uwtable
define linkonce_odr void @_ZNSt10__weak_ptrIN32pxrInternal_v0_24__pxrReserved__21UsdImagingPrimAdapterELN9__gnu_cxx12_Lock_policyE2EED2Ev(ptr noundef nonnull align 8 dereferenceable(16) %0) unnamed_addr #2 comdat align 2 {
  %2 = alloca ptr, align 8
  store ptr %0, ptr %2, align 8
  %3 = load ptr, ptr %2, align 8
  %4 = getelementptr inbounds nuw %"class.std::__weak_ptr", ptr %3, i32 0, i32 1
  call void @_ZNSt12__weak_countILN9__gnu_cxx12_Lock_policyE2EED2Ev(ptr noundef nonnull align 8 dereferenceable(8) %4) #7
  ret void
}

; Function Attrs: mustprogress nounwind uwtable
define linkonce_odr void @_ZNSt8weak_ptrIN32pxrInternal_v0_24__pxrReserved__21UsdImagingPrimAdapterEED2Ev(ptr noundef nonnull align 8 dereferenceable(16) %0) unnamed_addr #2 comdat align 2 {
  %2 = alloca ptr, align 8
  store ptr %0, ptr %2, align 8
  %3 = load ptr, ptr %2, align 8
  call void @_ZNSt10__weak_ptrIN32pxrInternal_v0_24__pxrReserved__21UsdImagingPrimAdapterELN9__gnu_cxx12_Lock_policyE2EED2Ev(ptr noundef nonnull align 8 dereferenceable(16) %3) #7
  ret void
}

; Function Attrs: mustprogress nounwind uwtable
define linkonce_odr void @_ZNSt23enable_shared_from_thisIN32pxrInternal_v0_24__pxrReserved__21UsdImagingPrimAdapterEED2Ev(ptr noundef nonnull align 8 dereferenceable(16) %0) unnamed_addr #2 comdat align 2 {
  %2 = alloca ptr, align 8
  store ptr %0, ptr %2, align 8
  %3 = load ptr, ptr %2, align 8
  %4 = getelementptr inbounds nuw %"class.std::enable_shared_from_this", ptr %3, i32 0, i32 0
  call void @_ZNSt8weak_ptrIN32pxrInternal_v0_24__pxrReserved__21UsdImagingPrimAdapterEED2Ev(ptr noundef nonnull align 8 dereferenceable(16) %4) #7
  ret void
}

; Function Attrs: mustprogress nounwind uwtable
define linkonce_odr void @_ZN32pxrInternal_v0_24__pxrReserved__21UsdImagingPrimAdapterD2Ev(ptr noundef nonnull align 8 dereferenceable(32) %0) unnamed_addr #2 comdat align 2 {
  %2 = alloca ptr, align 8
  store ptr %0, ptr %2, align 8
  %3 = load ptr, ptr %2, align 8
  %4 = getelementptr inbounds i8, ptr %3, i64 8
  call void @_ZNSt23enable_shared_from_thisIN32pxrInternal_v0_24__pxrReserved__21UsdImagingPrimAdapterEED2Ev(ptr noundef nonnull align 8 dereferenceable(16) %4) #7
  ret void
}

; Function Attrs: mustprogress nounwind uwtable
define linkonce_odr void @_ZN32pxrInternal_v0_24__pxrReserved__33UsdImagingInstanceablePrimAdapterD2Ev(ptr noundef nonnull align 8 dereferenceable(32) %0) unnamed_addr #2 comdat align 2 {
  %2 = alloca ptr, align 8
  store ptr %0, ptr %2, align 8
  %3 = load ptr, ptr %2, align 8
  call void @_ZN32pxrInternal_v0_24__pxrReserved__21UsdImagingPrimAdapterD2Ev(ptr noundef nonnull align 8 dereferenceable(32) %3) #7
  ret void
}

; Function Attrs: mustprogress nounwind uwtable
define linkonce_odr void @_ZN32pxrInternal_v0_24__pxrReserved__22UsdImagingGprimAdapterD2Ev(ptr noundef nonnull align 8 dereferenceable(32) %0) unnamed_addr #2 comdat align 2 {
  %2 = alloca ptr, align 8
  store ptr %0, ptr %2, align 8
  %3 = load ptr, ptr %2, align 8
  call void @_ZN32pxrInternal_v0_24__pxrReserved__33UsdImagingInstanceablePrimAdapterD2Ev(ptr noundef nonnull align 8 dereferenceable(32) %3) #7
  ret void
}

; Function Attrs: mustprogress nounwind uwtable
define void @_ZN32pxrInternal_v0_24__pxrReserved__30UsdImagingHermiteCurvesAdapterD2Ev(ptr noundef nonnull align 8 dereferenceable(32) %0) unnamed_addr #2 align 2 {
  %2 = alloca ptr, align 8
  store ptr %0, ptr %2, align 8
  %3 = load ptr, ptr %2, align 8
  call void @_ZN32pxrInternal_v0_24__pxrReserved__22UsdImagingGprimAdapterD2Ev(ptr noundef nonnull align 8 dereferenceable(32) %3) #7
  ret void
}